; Function Attrs: mustprogress nofree norecurse nosync nounwind willreturn memory(argmem: readwrite) uwtable
define internal noundef i32 @dsa_init(ptr noundef captures(none) %0) #6 {
  %2 = getelementptr inbounds nuw i8, ptr %0, i64 120
  %3 = load i32, ptr %2, align 8, !tbaa !32
  %4 = or i32 %3, 1
  store i32 %4, ptr %2, align 8, !tbaa !32
  %5 = getelementptr inbounds nuw i8, ptr %0, i64 192
  %6 = load i64, ptr %5, align 8, !tbaa !40
  %7 = add i64 %6, 1
  store i64 %7, ptr %5, align 8, !tbaa !40
  ret i32 1
}